target datalayout = "e-m:e-p270:32:32-p271:32:32-p272:64:64-i64:64-i128:128-f80:128-n8:16:32:64-S128"
target triple = "x86_64-pc-linux-gnu"

%struct._address = type { i32, i32, ptr, ptr }
%struct.nstime_t = type { i64, i32 }
%struct._ldss_transfer_info_t = type { i32, %struct.nstime_t, ptr, ptr, ptr }
%struct._ldss_broadcast_t = type { i32, %struct.nstime_t, i16, i16, i16, i64, i64, i8, ptr, ptr }
%struct._ldss_broadcaster_t = type { %struct._address, i16 }

@proto_ldss = internal global i32 0, align 4
@ldss_tcp_handle = internal global ptr null, align 8

; Function Attrs: null_pointer_is_valid sspstrong uwtable
define internal void @prepare_ldss_transfer_conv(ptr noundef %0) #0 {
  %2 = alloca ptr, align 8
  %3 = alloca ptr, align 8
  %4 = alloca ptr, align 8
  store ptr %0, ptr %2, align 8
  %5 = load ptr, ptr %2, align 8
  %6 = getelementptr inbounds nuw %struct._ldss_broadcast_t, ptr %5, i32 0, i32 0
  %7 = load i32, ptr %6, align 8
  %8 = load ptr, ptr %2, align 8
  %9 = getelementptr inbounds nuw %struct._ldss_broadcast_t, ptr %8, i32 0, i32 9
  %10 = load ptr, ptr %9, align 8
  %11 = getelementptr inbounds nuw %struct._ldss_broadcaster_t, ptr %10, i32 0, i32 0
  %12 = load ptr, ptr %2, align 8
  %13 = getelementptr inbounds nuw %struct._ldss_broadcast_t, ptr %12, i32 0, i32 9
  %14 = load ptr, ptr %13, align 8
  %15 = getelementptr inbounds nuw %struct._ldss_broadcaster_t, ptr %14, i32 0, i32 0
  %16 = load ptr, ptr %2, align 8
  %17 = getelementptr inbounds nuw %struct._ldss_broadcast_t, ptr %16, i32 0, i32 9
  %18 = load ptr, ptr %17, align 8
  %19 = getelementptr inbounds nuw %struct._ldss_broadcaster_t, ptr %18, i32 0, i32 1
  %20 = load i16, ptr %19, align 8
  %21 = zext i16 %20 to i32
  %22 = load ptr, ptr %2, align 8
  %23 = getelementptr inbounds nuw %struct._ldss_broadcast_t, ptr %22, i32 0, i32 9
  %24 = load ptr, ptr %23, align 8
  %25 = getelementptr inbounds nuw %struct._ldss_broadcaster_t, ptr %24, i32 0, i32 1
  %26 = load i16, ptr %25, align 8
  %27 = zext i16 %26 to i32
  %28 = call ptr @find_conversation(i32 noundef %7, ptr noundef %11, ptr noundef %15, i32 noundef 2, i32 noundef %21, i32 noundef %27, i32 noundef 196608)
  %29 = icmp ne ptr %28, null
  br i1 %29, label %65, label %30

30:                                               ; preds = %1
  call void @llvm.lifetime.start.p0(i64 8, ptr %3) #13
  call void @llvm.lifetime.start.p0(i64 8, ptr %4) #13
  %31 = call ptr @wmem_file_scope()
  %32 = call noalias ptr @wmem_alloc0(ptr noundef %31, i64 noundef 48) #15
  store ptr %32, ptr %4, align 8
  %33 = load ptr, ptr %2, align 8
  %34 = load ptr, ptr %4, align 8
  %35 = getelementptr inbounds nuw %struct._ldss_transfer_info_t, ptr %34, i32 0, i32 4
  store ptr %33, ptr %35, align 8
  %36 = load ptr, ptr %2, align 8
  %37 = getelementptr inbounds nuw %struct._ldss_broadcast_t, ptr %36, i32 0, i32 0
  %38 = load i32, ptr %37, align 8
  %39 = load ptr, ptr %2, align 8
  %40 = getelementptr inbounds nuw %struct._ldss_broadcast_t, ptr %39, i32 0, i32 9
  %41 = load ptr, ptr %40, align 8
  %42 = getelementptr inbounds nuw %struct._ldss_broadcaster_t, ptr %41, i32 0, i32 0
  %43 = load ptr, ptr %2, align 8
  %44 = getelementptr inbounds nuw %struct._ldss_broadcast_t, ptr %43, i32 0, i32 9
  %45 = load ptr, ptr %44, align 8
  %46 = getelementptr inbounds nuw %struct._ldss_broadcaster_t, ptr %45, i32 0, i32 0
  %47 = load ptr, ptr %2, align 8
  %48 = getelementptr inbounds nuw %struct._ldss_broadcast_t, ptr %47, i32 0, i32 9
  %49 = load ptr, ptr %48, align 8
  %50 = getelementptr inbounds nuw %struct._ldss_broadcaster_t, ptr %49, i32 0, i32 1
  %51 = load i16, ptr %50, align 8
  %52 = zext i16 %51 to i32
  %53 = load ptr, ptr %2, align 8
  %54 = getelementptr inbounds nuw %struct._ldss_broadcast_t, ptr %53, i32 0, i32 9
  %55 = load ptr, ptr %54, align 8
  %56 = getelementptr inbounds nuw %struct._ldss_broadcaster_t, ptr %55, i32 0, i32 1
  %57 = load i16, ptr %56, align 8
  %58 = zext i16 %57 to i32
  %59 = call ptr @conversation_new(i32 noundef %38, ptr noundef %42, ptr noundef %46, i32 noundef 2, i32 noundef %52, i32 noundef %58, i32 noundef 3)
  store ptr %59, ptr %3, align 8
  %60 = load ptr, ptr %3, align 8
  %61 = load i32, ptr @proto_ldss, align 4
  %62 = load ptr, ptr %4, align 8
  call void @conversation_add_proto_data(ptr noundef %60, i32 noundef %61, ptr noundef %62)
  %63 = load ptr, ptr %3, align 8
  %64 = load ptr, ptr @ldss_tcp_handle, align 8
  call void @conversation_set_dissector(ptr noundef %63, ptr noundef %64)
  call void @llvm.lifetime.end.p0(i64 8, ptr %4) #13
  call void @llvm.lifetime.end.p0(i64 8, ptr %3) #13
  br label %65

65:                                               ; preds = %30, %1
  ret void
}