; Function Attrs: null_pointer_is_valid sspstrong uwtable
define internal fastcc void @prepare_ldss_transfer_conv(ptr noundef %0) unnamed_addr #0 {
  %2 = load i32, ptr %0, align 8
  %3 = getelementptr inbounds nuw i8, ptr %0, i64 64
  %4 = load ptr, ptr %3, align 8
  %5 = getelementptr inbounds nuw i8, ptr %4, i64 24
  %6 = load i16, ptr %5, align 8
  %7 = zext i16 %6 to i32
  %8 = tail call ptr @find_conversation(i32 noundef %2, ptr noundef %4, ptr noundef %4, i32 noundef 2, i32 noundef %7, i32 noundef %7, i32 noundef 196608)
  %.not = icmp eq ptr %8, null
  br i1 %.not, label %9, label %21

9:                                                ; preds = %1
  %10 = tail call ptr @wmem_file_scope()
  %11 = tail call noalias dereferenceable_or_null(48) ptr @wmem_alloc0(ptr noundef %10, i64 noundef 48) #15
  %12 = getelementptr inbounds nuw i8, ptr %11, i64 40
  store ptr %0, ptr %12, align 8
  %13 = load i32, ptr %0, align 8
  %14 = load ptr, ptr %3, align 8
  %15 = getelementptr inbounds nuw i8, ptr %14, i64 24
  %16 = load i16, ptr %15, align 8
  %17 = zext i16 %16 to i32
  %18 = tail call ptr @conversation_new(i32 noundef %13, ptr noundef %14, ptr noundef %14, i32 noundef 2, i32 noundef %17, i32 noundef %17, i32 noundef 3)
  %19 = load i32, ptr @proto_ldss, align 4
  tail call void @conversation_add_proto_data(ptr noundef %18, i32 noundef %19, ptr noundef %11)
  %20 = load ptr, ptr @ldss_tcp_handle, align 8
  tail call void @conversation_set_dissector(ptr noundef %18, ptr noundef %20)
  br label %21

21:                                               ; preds = %9, %1
  ret void
}